target datalayout = "e-m:e-p270:32:32-p271:32:32-p272:64:64-i64:64-i128:128-f80:128-n8:16:32:64-S128"
target triple = "x86_64-pc-linux-gnu"

; Function Attrs: mustprogress uwtable
define hidden noundef i32 @_ZN4perf8TestBase14getSizeInBytesERKN2cv11_InputArrayE(ptr noundef nonnull align 8 dereferenceable(24) %0) #7 align 2 {
  %2 = alloca i32, align 4
  %3 = alloca ptr, align 8
  %4 = alloca i32, align 4
  %5 = alloca i32, align 4
  %6 = alloca i32, align 4
  %7 = alloca i32, align 4
  store ptr %0, ptr %3, align 8, !tbaa !23
  %8 = load ptr, ptr %3, align 8, !tbaa !23
  %9 = call noundef zeroext i1 @_ZNK2cv11_InputArray5emptyEv(ptr noundef nonnull align 8 dereferenceable(24) %8)
  br i1 %9, label %10, label %11

10:                                               ; preds = %1
  store i32 0, ptr %2, align 4
  br label %71

11:                                               ; preds = %1
  call void @llvm.lifetime.start.p0(i64 4, ptr %4) #3
  %12 = load ptr, ptr %3, align 8, !tbaa !23
  %13 = call noundef i64 @_ZNK2cv11_InputArray5totalEi(ptr noundef nonnull align 8 dereferenceable(24) %12, i32 noundef -1)
  %14 = trunc i64 %13 to i32
  store i32 %14, ptr %4, align 4, !tbaa !8
  %15 = load ptr, ptr %3, align 8, !tbaa !23
  %16 = call noundef i32 @_ZNK2cv11_InputArray4kindEv(ptr noundef nonnull align 8 dereferenceable(24) %15)
  %17 = icmp ne i32 %16, 327680
  br i1 %17, label %18, label %37

18:                                               ; preds = %11
  %19 = load ptr, ptr %3, align 8, !tbaa !23
  %20 = call noundef i32 @_ZNK2cv11_InputArray4kindEv(ptr noundef nonnull align 8 dereferenceable(24) %19)
  %21 = icmp ne i32 %20, 262144
  br i1 %21, label %22, label %37

22:                                               ; preds = %18
  %23 = load i32, ptr %4, align 4, !tbaa !8
  %24 = load ptr, ptr %3, align 8, !tbaa !23
  %25 = call noundef i32 @_ZNK2cv11_InputArray4typeEi(ptr noundef nonnull align 8 dereferenceable(24) %24, i32 noundef -1)
  %26 = and i32 %25, 4088
  %27 = ashr i32 %26, 3
  %28 = add nsw i32 %27, 1
  %29 = load ptr, ptr %3, align 8, !tbaa !23
  %30 = call noundef i32 @_ZNK2cv11_InputArray4typeEi(ptr noundef nonnull align 8 dereferenceable(24) %29, i32 noundef -1)
  %31 = and i32 %30, 7
  %32 = mul nsw i32 %31, 4
  %33 = ashr i32 675553809, %32
  %34 = and i32 %33, 15
  %35 = mul nsw i32 %28, %34
  %36 = mul nsw i32 %23, %35
  store i32 %36, ptr %2, align 4
  store i32 1, ptr %5, align 4
  br label %70

37:                                               ; preds = %18, %11
  call void @llvm.lifetime.start.p0(i64 4, ptr %6) #3
  store i32 0, ptr %6, align 4, !tbaa !8
  call void @llvm.lifetime.start.p0(i64 4, ptr %7) #3
  store i32 0, ptr %7, align 4, !tbaa !8
  br label %38

38:                                               ; preds = %65, %37
  %39 = load i32, ptr %7, align 4, !tbaa !8
  %40 = load i32, ptr %4, align 4, !tbaa !8
  %41 = icmp slt i32 %39, %40
  br i1 %41, label %43, label %42

42:                                               ; preds = %38
  store i32 2, ptr %5, align 4
  call void @llvm.lifetime.end.p0(i64 4, ptr %7) #3
  br label %68

43:                                               ; preds = %38
  %44 = load ptr, ptr %3, align 8, !tbaa !23
  %45 = load i32, ptr %7, align 4, !tbaa !8
  %46 = call noundef i64 @_ZNK2cv11_InputArray5totalEi(ptr noundef nonnull align 8 dereferenceable(24) %44, i32 noundef %45)
  %47 = trunc i64 %46 to i32
  %48 = load ptr, ptr %3, align 8, !tbaa !23
  %49 = load i32, ptr %7, align 4, !tbaa !8
  %50 = call noundef i32 @_ZNK2cv11_InputArray4typeEi(ptr noundef nonnull align 8 dereferenceable(24) %48, i32 noundef %49)
  %51 = and i32 %50, 4088
  %52 = ashr i32 %51, 3
  %53 = add nsw i32 %52, 1
  %54 = load ptr, ptr %3, align 8, !tbaa !23
  %55 = load i32, ptr %7, align 4, !tbaa !8
  %56 = call noundef i32 @_ZNK2cv11_InputArray4typeEi(ptr noundef nonnull align 8 dereferenceable(24) %54, i32 noundef %55)
  %57 = and i32 %56, 7
  %58 = mul nsw i32 %57, 4
  %59 = ashr i32 675553809, %58
  %60 = and i32 %59, 15
  %61 = mul nsw i32 %53, %60
  %62 = mul nsw i32 %47, %61
  %63 = load i32, ptr %6, align 4, !tbaa !8
  %64 = add nsw i32 %63, %62
  store i32 %64, ptr %6, align 4, !tbaa !8
  br label %65

65:                                               ; preds = %43
  %66 = load i32, ptr %7, align 4, !tbaa !8
  %67 = add nsw i32 %66, 1
  store i32 %67, ptr %7, align 4, !tbaa !8
  br label %38, !llvm.loop !204

68:                                               ; preds = %42
  %69 = load i32, ptr %6, align 4, !tbaa !8
  store i32 %69, ptr %2, align 4
  store i32 1, ptr %5, align 4
  call void @llvm.lifetime.end.p0(i64 4, ptr %6) #3
  br label %70

70:                                               ; preds = %68, %22
  call void @llvm.lifetime.end.p0(i64 4, ptr %4) #3
  br label %71

71:                                               ; preds = %70, %10
  %72 = load i32, ptr %2, align 4
  ret i32 %72
}