; Function Attrs: mustprogress uwtable
define hidden noundef i32 @_ZN4perf8TestBase14getSizeInBytesERKN2cv11_InputArrayE(ptr noundef nonnull align 8 dereferenceable(24) %0) local_unnamed_addr #5 align 2 {
  %2 = tail call noundef zeroext i1 @_ZNK2cv11_InputArray5emptyEv(ptr noundef nonnull align 8 dereferenceable(24) %0)
  br i1 %2, label %.loopexit, label %3

3:                                                ; preds = %1
  %4 = tail call noundef i64 @_ZNK2cv11_InputArray5totalEi(ptr noundef nonnull align 8 dereferenceable(24) %0, i32 noundef -1)
  %5 = trunc i64 %4 to i32
  %6 = tail call noundef i32 @_ZNK2cv11_InputArray4kindEv(ptr noundef nonnull align 8 dereferenceable(24) %0)
  %.not = icmp eq i32 %6, 327680
  br i1 %.not, label %21, label %7

7:                                                ; preds = %3
  %8 = tail call noundef i32 @_ZNK2cv11_InputArray4kindEv(ptr noundef nonnull align 8 dereferenceable(24) %0)
  %.not20 = icmp eq i32 %8, 262144
  br i1 %.not20, label %21, label %9

9:                                                ; preds = %7
  %10 = tail call noundef i32 @_ZNK2cv11_InputArray4typeEi(ptr noundef nonnull align 8 dereferenceable(24) %0, i32 noundef -1)
  %11 = lshr i32 %10, 3
  %12 = and i32 %11, 511
  %13 = add nuw nsw i32 %12, 1
  %14 = tail call noundef i32 @_ZNK2cv11_InputArray4typeEi(ptr noundef nonnull align 8 dereferenceable(24) %0, i32 noundef -1)
  %15 = shl i32 %14, 2
  %16 = and i32 %15, 28
  %17 = lshr i32 675553809, %16
  %18 = and i32 %17, 15
  %19 = mul i32 %13, %5
  %20 = mul i32 %19, %18
  br label %.loopexit

21:                                               ; preds = %7, %3
  %22 = icmp sgt i32 %5, 0
  br i1 %22, label %.lr.ph, label %.loopexit

.lr.ph:                                           ; preds = %21, %.lr.ph
  %.022 = phi i32 [ %37, %.lr.ph ], [ 0, %21 ]
  %.01821 = phi i32 [ %36, %.lr.ph ], [ 0, %21 ]
  %23 = tail call noundef i64 @_ZNK2cv11_InputArray5totalEi(ptr noundef nonnull align 8 dereferenceable(24) %0, i32 noundef %.022)
  %24 = trunc i64 %23 to i32
  %25 = tail call noundef i32 @_ZNK2cv11_InputArray4typeEi(ptr noundef nonnull align 8 dereferenceable(24) %0, i32 noundef %.022)
  %26 = lshr i32 %25, 3
  %27 = and i32 %26, 511
  %28 = add nuw nsw i32 %27, 1
  %29 = tail call noundef i32 @_ZNK2cv11_InputArray4typeEi(ptr noundef nonnull align 8 dereferenceable(24) %0, i32 noundef %.022)
  %30 = shl i32 %29, 2
  %31 = and i32 %30, 28
  %32 = lshr i32 675553809, %31
  %33 = and i32 %32, 15
  %34 = mul i32 %28, %24
  %35 = mul i32 %34, %33
  %36 = add nsw i32 %35, %.01821
  %37 = add nuw nsw i32 %.022, 1
  %exitcond.not = icmp eq i32 %37, %5
  br i1 %exitcond.not, label %.loopexit, label %.lr.ph, !llvm.loop !303

.loopexit:                                        ; preds = %.lr.ph, %21, %9, %1
  %.019 = phi i32 [ 0, %1 ], [ %20, %9 ], [ 0, %21 ], [ %36, %.lr.ph ]
  ret i32 %.019
}